(lp0
S'Turnberry in Scotland What a great'
p1
aS'The writer of the now'
p2
aS'arrived in Texas - have'
p3
aS"you're the only person that"
p4
aS'in Indiana where'
p5
aS'and immigration will'
p6
aS"didn't the writer of the twelve"
p7
aS'the great police and law'
p8
aS'communication He'
p9
aS'and spirit Just returned'
p10
aS'and open-and let the Muslims flow'
p11
aS'the major morning talk'
p12
aS'and other countries to'
p13
aS'endorsement Also backed'
p14
aS'a sick obsession with'
p15
aS'Amazing people that'
p16
aS'the racist undertones'
p17
aS'in Cincinnati is'
p18
aS'@NBCNews refuses to accept'
p19
aS'and Clinton told the same'
p20
aS"Don't believe the millions of"
p21
aS'Louisiana days'
p22
aS'The failing @nytimes talks about'
p23
aS'the definition of'
p24
aS'dishonest story they'
p25
aS'begin a rally here'
p26
aS'a president endorsed'
p27
aS'tonight and is the big'
p28
aS'Louisiana Big'
p29
aS'the devastating floods'
p30
aS'and @chucktodd did a 1 hour hit'
p31
aS'enjoyed the evening Not'
p32
aS'again united as'
p33
aS'the Economic Club'
p34
aS'another desperate move'
p35
aS'allowing people on'
p36
aS'Nevada Sorry to'
p37
aS'and energetic crowd'
p38
aS'in fighting terror Im'
p39
aS'the litigation is'
p40
aS'in Indiana by'
p41
aS'the CHARLOTTE NC speech ACROSS'
p42
aS'Congratulations to'
p43
aS'attend a great event'
p44
aS'and very stupid use'
p45
aS'her boring interviews'
p46
aS'election is a choice'
p47
aS'a new election should'
p48
aS'communication skills'
p49
aS'Become A Global Threat'
p50
aS'remember 2017 as the year'
p51
aS'endorsement Very much'
p52
aS'her strong endorsement for'
p53
aS'Facebook and Twitter to expose'
p54
aS'A massive tax increase'
p55
aS'Congratulation to'
p56
aS'together President'
p57
aS'declared the winner of'
p58
aS'in Honolulu Ill'
p59
aS'the men and women who'
p60
aS'fantastic on @meetthepress today'
p61
aS'and phony ads against'
p62
aS'and our borders will'
p63
aS'in Indiana on'
p64
aS'@FaceTheNation A solid interview'
p65
aS'the second highest vote'
p66
aS'collude in order to'
p67
aS'alliance members must'
p68
aS'event in honor of'
p69
aS'the simple fact about'
p70
aS'enthusiasm at'
p71
aS'important issue of'
p72
aS'98% approval rating by'
p73
aS'the fallen heroes on'
p74
aS'and Sanders people who'
p75
aS'Agreement Paved The Way'
p76
aS'the figures are announced'
p77
aS'The only people who'
p78
aS'commercials pushing for'
p79
aS'commander just announced'
p80
aS'The people who support'
p81
aS'the only person who'
p82
aS'about The danger is'
p83
aS'enjoy the Super Bowl'
p84
aS'were just projected to'
p85
aS'the experts saying I'
p86
aS'the Pensacola Bay'
p87
aS'election is about'
p88
aS'elect the nominee'
p89
aS'the Bible high into'
p90
aS'and am the only one'
p91
aS'Nebraska Sarah was'
p92
aS'a major speech in West'
p93
aS'the Dem nomination when'
p94
aS'Ohio Gov.Kasich voted for'
p95
aS'investigation by'
p96
aS'in People Magazine'
p97
aS'despite the really bad'
p98
aS'the voters will forget'
p99
aS'The failing @nytimes has become'
p100
aS'Committee by a vote'
p101
aS'and optimism I'
p102
aS'her husband was the WORST'
p103
aS'and Maine Fantastic crowds'
p104
aS'and never even call'
p105
aS'committed fraud in his'
p106
aS'a better future for'
p107
aS'in Arizona on'
p108
aS'another phony hit'
p109
aS'Kentucky listen to'
p110
aS'in holding onto his'
p111
aS'Appreciate the congrats for'
p112
aS'in order to advance'
p113
aS'the plane behind her like'
p114
aS'the things Rubio&amp;Cruz were using for'
p115
aS'a state in votes and then'
p116
aS'already beaten you'
p117
aS'continue our bad'
p118
aS'discuss the sneak attack'
p119
aS'Missouri just confirmed'
p120
aS'Pacific Partnership'
p121
aS'and people who control'
p122
aS'about the massive drug'
p123
aS'campaign and finish #1, so'
p124
aS'eliminated for'
p125
aS'and vicious killing by'
p126
aS'a movement from within'
p127
aS'the people of the UK have'
p128
aS'and getting worse-almost ZERO growth'
p129
aS'@meetthepress and @chucktodd did a 1 hour hit'
p130
aS'today reminds the world'
p131
aS'appreciation for'
p132
aS'the WORST abuser of'
p133
aS'the Bernie people will'
p134
aS'the invitation of'
p135
aS'referring to the fact'
p136
aS'amazing mother whose'
p137
aS'Exclusive interview'
p138
aS'A detainee released'
p139
aS'her husband wanted to'
p140
aS'the fraud committed by'
p141
aS'a big event in South'
p142
aS'the special interest Koch'
p143
aS'a helicopter to'
p144
aS'attacked the peaceful Trump'
p145
aS'Administration is'
p146
aS'arrived in Scotland Place'
p147
aS'her secret server has'
p148
aS'and military are'
p149
aS'a major special on'
p150
aS'the winner of the CNMI Rep'
p151
aS'insurgent catching up'
p152
aS'the legendary Coach'
p153
aS'GOP continues to subvert'
p154
aS'amazing day in South'
p155
aS'the greatest president'
p156
aS'and our country will'
p157
aS'amazing evening with'
p158
aS'the unsuspecting voter(grade of'
p159
aS'The vote percentage is'
p160
aS'Fraternal Order of'
p161
aS'The spirit of the crowd'
p162
aS'without a lie Marines'
p163
aS'in Pennsylvania now'
p164
aS'ELIMINATED from'
p165
aS'in our country want'
p166
aS'defies belief the Web'
p167
aS'"@ChadRowland3: @jdickerson @FaceTheNation A solid interview'
p168
aS'the rough and tumble of'
p169
aS'concerning women when'
p170
aS'allow the very nice'
p171
aS'in Pennsylvania have'
p172
aS'her private work and that'
p173
aS'in Indiana all'
p174
aS'the strong endorsement of'
p175
aS'in Indiana to'
p176
aS'the truth directly to'
p177
aS'60% increase in Texas Blue'
p178
aS'a major speech tonight'
p179
aS'the bad decisions she'
p180
aS'into the air and then'
p181
aS'attack today reminds'
p182
aS"campaign and didn't even want"
p183
aS'the Bernie voters who'
p184
aS'in Pennsylvania So'
p185
aS'disaster since the great'
p186
aS'Turnberry in Scotland was a big'
p187
aS'examples of conflicts'
p188
aS'the press refuses to'
p189
aS'a fortune for the use'
p190
aS'away the ratings of'
p191
aS'Debates admitted to'
p192
aS'the Clintons who allowed'
p193
aS'@oreillyfactor tonight A total waste'
p194
aS'and miners Husband signed'
p195
aS'in money from regimes'
p196
aS'FBI and to the people of'
p197
aS'endorsement of the great'
p198
aS'administration would'
p199
aS'about @tedcruz in Tennessee'
p200
aS'Muhammad Ali is'
p201
aS'a democrat and switch'
p202
aS'in Pennsylvania where'
p203
aS'@jdickerson and @FaceTheNation for a very fair'
p204
aS'the tour and spending time'
p205
a.